target datalayout = "e-m:e-p270:32:32-p271:32:32-p272:64:64-i64:64-i128:128-f80:128-n8:16:32:64-S128"
target triple = "x86_64-pc-linux-gnu"

%union.int_mv = type { i32 }
%struct.macroblockd_plane = type { i8, i32, i32, %struct.buf_2d, [2 x %struct.buf_2d], ptr, ptr, [8 x [2 x i16]], ptr, i8, i8, [8 x [19 x ptr]], [8 x [19 x ptr]] }
%struct.buf_2d = type { ptr, ptr, i32, i32, i32 }
%struct.macroblockd = type { i32, i32, i32, i8, [3 x %struct.macroblockd_plane], %struct.TileInfo, ptr, i8, i8, i8, i8, ptr, ptr, ptr, ptr, ptr, i32, i32, i32, i32, i32, [2 x ptr], ptr, [3 x ptr], [3 x [32 x i8]], ptr, [32 x i8], ptr, ptr, [32 x i8], [3 x %struct.WienerInfo], [3 x %struct.SgrprojInfo], i8, i8, [29 x [8 x %struct.candidate_mv]], [29 x [8 x i16]], i8, i8, [8 x i8], ptr, i32, [8 x i32], [8 x i32], i32, i32, ptr, ptr, i8, [4 x i8], [4 x i8], [7 x i8], [32768 x i8], %struct.cfl_ctx, [2 x i16], ptr, [2 x ptr] }
%struct.TileInfo = type { i32, i32, i32, i32, i32, i32 }
%struct.WienerInfo = type { [8 x i16], [8 x i16] }
%struct.SgrprojInfo = type { i32, [2 x i32] }
%struct.candidate_mv = type { %union.int_mv, %union.int_mv }
%struct.cfl_ctx = type { [1024 x i16], [1024 x i16], [2 x i32], i32, [2 x [32 x i16]], i32, i32, i32, i32, i32, i32 }

; Function Attrs: nounwind uwtable
define internal zeroext i8 @get_plane_type(i32 noundef %0) #0 {
  %2 = alloca i32, align 4
  store i32 %0, ptr %2, align 4
  %3 = load i32, ptr %2, align 4
  %4 = icmp eq i32 %3, 0
  %5 = select i1 %4, i32 0, i32 1
  %6 = trunc i32 %5 to i8
  ret i8 %6
}

; Function Attrs: nounwind uwtable
define hidden void @av1_setup_block_planes(ptr noundef %0, i32 noundef %1, i32 noundef %2, i32 noundef %3) #0 {
  %5 = alloca ptr, align 8
  %6 = alloca i32, align 4
  %7 = alloca i32, align 4
  %8 = alloca i32, align 4
  %9 = alloca i32, align 4
  store ptr %0, ptr %5, align 8
  store i32 %1, ptr %6, align 4
  store i32 %2, ptr %7, align 4
  store i32 %3, ptr %8, align 4
  store i32 0, ptr %9, align 4
  br label %10

10:                                               ; preds = %49, %4
  %11 = load i32, ptr %9, align 4
  %12 = load i32, ptr %8, align 4
  %13 = icmp slt i32 %11, %12
  br i1 %13, label %14, label %52

14:                                               ; preds = %10
  %15 = load i32, ptr %9, align 4
  %16 = call zeroext i8 @get_plane_type(i32 noundef %15)
  %17 = load ptr, ptr %5, align 8
  %18 = getelementptr inbounds nuw %struct.macroblockd, ptr %17, i32 0, i32 4
  %19 = load i32, ptr %9, align 4
  %20 = sext i32 %19 to i64
  %21 = getelementptr inbounds [3 x %struct.macroblockd_plane], ptr %18, i64 0, i64 %20
  %22 = getelementptr inbounds nuw %struct.macroblockd_plane, ptr %21, i32 0, i32 0
  store i8 %16, ptr %22, align 16
  %23 = load i32, ptr %9, align 4
  %24 = icmp ne i32 %23, 0
  br i1 %24, label %25, label %27

25:                                               ; preds = %14
  %26 = load i32, ptr %6, align 4
  br label %28

27:                                               ; preds = %14
  br label %28

28:                                               ; preds = %27, %25
  %29 = phi i32 [ %26, %25 ], [ 0, %27 ]
  %30 = load ptr, ptr %5, align 8
  %31 = getelementptr inbounds nuw %struct.macroblockd, ptr %30, i32 0, i32 4
  %32 = load i32, ptr %9, align 4
  %33 = sext i32 %32 to i64
  %34 = getelementptr inbounds [3 x %struct.macroblockd_plane], ptr %31, i64 0, i64 %33
  %35 = getelementptr inbounds nuw %struct.macroblockd_plane, ptr %34, i32 0, i32 1
  store i32 %29, ptr %35, align 4
  %36 = load i32, ptr %9, align 4
  %37 = icmp ne i32 %36, 0
  br i1 %37, label %38, label %40

38:                                               ; preds = %28
  %39 = load i32, ptr %7, align 4
  br label %41

40:                                               ; preds = %28
  br label %41

41:                                               ; preds = %40, %38
  %42 = phi i32 [ %39, %38 ], [ 0, %40 ]
  %43 = load ptr, ptr %5, align 8
  %44 = getelementptr inbounds nuw %struct.macroblockd, ptr %43, i32 0, i32 4
  %45 = load i32, ptr %9, align 4
  %46 = sext i32 %45 to i64
  %47 = getelementptr inbounds [3 x %struct.macroblockd_plane], ptr %44, i64 0, i64 %46
  %48 = getelementptr inbounds nuw %struct.macroblockd_plane, ptr %47, i32 0, i32 2
  store i32 %42, ptr %48, align 8
  br label %49

49:                                               ; preds = %41
  %50 = load i32, ptr %9, align 4
  %51 = add nsw i32 %50, 1
  store i32 %51, ptr %9, align 4
  br label %10, !llvm.loop !8

52:                                               ; preds = %10
  %53 = load i32, ptr %8, align 4
  store i32 %53, ptr %9, align 4
  br label %54

54:                                               ; preds = %70, %52
  %55 = load i32, ptr %9, align 4
  %56 = icmp slt i32 %55, 3
  br i1 %56, label %57, label %73

57:                                               ; preds = %54
  %58 = load ptr, ptr %5, align 8
  %59 = getelementptr inbounds nuw %struct.macroblockd, ptr %58, i32 0, i32 4
  %60 = load i32, ptr %9, align 4
  %61 = sext i32 %60 to i64
  %62 = getelementptr inbounds [3 x %struct.macroblockd_plane], ptr %59, i64 0, i64 %61
  %63 = getelementptr inbounds nuw %struct.macroblockd_plane, ptr %62, i32 0, i32 1
  store i32 1, ptr %63, align 4
  %64 = load ptr, ptr %5, align 8
  %65 = getelementptr inbounds nuw %struct.macroblockd, ptr %64, i32 0, i32 4
  %66 = load i32, ptr %9, align 4
  %67 = sext i32 %66 to i64
  %68 = getelementptr inbounds [3 x %struct.macroblockd_plane], ptr %65, i64 0, i64 %67
  %69 = getelementptr inbounds nuw %struct.macroblockd_plane, ptr %68, i32 0, i32 2
  store i32 1, ptr %69, align 8
  br label %70

70:                                               ; preds = %57
  %71 = load i32, ptr %9, align 4
  %72 = add nsw i32 %71, 1
  store i32 %72, ptr %9, align 4
  br label %54, !llvm.loop !9

73:                                               ; preds = %54
  ret void
}