; Function Attrs: nofree norecurse nosync nounwind memory(argmem: write) uwtable
define hidden void @av1_setup_block_planes(ptr nocapture noundef writeonly %0, i32 noundef %1, i32 noundef %2, i32 noundef %3) local_unnamed_addr #5 {
  %5 = icmp sgt i32 %3, 0
  br i1 %5, label %.lr.ph, label %.lr.ph23

.lr.ph:                                           ; preds = %4
  %6 = getelementptr inbounds nuw i8, ptr %0, i64 16
  %wide.trip.count = zext nneg i32 %3 to i64
  br label %10

.preheader:                                       ; preds = %10
  %7 = icmp slt i32 %3, 3
  br i1 %7, label %.lr.ph23, label %._crit_edge

.lr.ph23:                                         ; preds = %4, %.preheader
  %8 = getelementptr inbounds nuw i8, ptr %0, i64 16
  %9 = sext i32 %3 to i64
  br label %18

10:                                               ; preds = %.lr.ph, %10
  %indvars.iv = phi i64 [ 0, %.lr.ph ], [ %indvars.iv.next, %10 ]
  %11 = icmp ne i64 %indvars.iv, 0
  %12 = zext i1 %11 to i8
  %13 = getelementptr inbounds [3 x %struct.macroblockd_plane], ptr %6, i64 0, i64 %indvars.iv
  store i8 %12, ptr %13, align 16
  %.not = icmp eq i64 %indvars.iv, 0
  %14 = select i1 %.not, i32 0, i32 %1
  %15 = getelementptr inbounds nuw i8, ptr %13, i64 4
  store i32 %14, ptr %15, align 4
  %16 = select i1 %.not, i32 0, i32 %2
  %17 = getelementptr inbounds nuw i8, ptr %13, i64 8
  store i32 %16, ptr %17, align 8
  %indvars.iv.next = add nuw nsw i64 %indvars.iv, 1
  %exitcond.not = icmp eq i64 %indvars.iv.next, %wide.trip.count
  br i1 %exitcond.not, label %.preheader, label %10, !llvm.loop !7

18:                                               ; preds = %.lr.ph23, %18
  %indvars.iv25 = phi i64 [ %9, %.lr.ph23 ], [ %indvars.iv.next26, %18 ]
  %19 = getelementptr inbounds [3 x %struct.macroblockd_plane], ptr %8, i64 0, i64 %indvars.iv25
  %20 = getelementptr inbounds nuw i8, ptr %19, i64 4
  store i32 1, ptr %20, align 4
  %21 = getelementptr inbounds nuw i8, ptr %19, i64 8
  store i32 1, ptr %21, align 8
  %indvars.iv.next26 = add nsw i64 %indvars.iv25, 1
  %22 = and i64 %indvars.iv.next26, 4294967295
  %exitcond28.not = icmp eq i64 %22, 3
  br i1 %exitcond28.not, label %._crit_edge, label %18, !llvm.loop !8

._crit_edge:                                      ; preds = %18, %.preheader
  ret void
}